target datalayout = "e-m:e-p270:32:32-p271:32:32-p272:64:64-i64:64-i128:128-f80:128-n8:16:32:64-S128"
target triple = "x86_64-pc-linux-gnu"

%struct.CoeffVLCs = type { [2 x ptr], [2 x ptr], [2 x ptr], ptr }

@intra_coeff_vlc = internal global [5 x %struct.CoeffVLCs] zeroinitializer, align 16
@inter_coeff_vlc = internal global [7 x %struct.CoeffVLCs] zeroinitializer, align 16
@rv60_qp_to_idx = internal constant [64 x i8] c"\00\00\00\00\00\00\00\01\01\01\01\02\02\02\02\03\03\03\03\04\04\04\04\05\05\05\05\06\06\06\06\00\00\00\00\00\00\00\00\00\00\00\01\01\01\01\01\01\02\02\02\02\03\03\03\03\03\04\04\04\04\04\00\00", align 16
@rv60_chroma_quant_dc = internal constant [32 x i8] c"\00\00\00\01\02\03\04\05\06\07\08\09\0A\0B\0C\0D\0E\0F\0F\10\11\12\12\13\14\14\15\15\16\16\17\17", align 16
@rv60_chroma_quant_ac = internal constant [32 x i8] c"\00\01\02\03\04\05\06\07\08\09\0A\0B\0C\0D\0E\0F\10\11\11\12\13\14\14\15\16\16\17\17\18\18\19\19", align 16

; Function Attrs: nounwind uwtable
define internal i32 @get_c4x4_set(i32 noundef %0, i32 noundef %1) #1 {
  %3 = alloca i32, align 4
  %4 = alloca i32, align 4
  %5 = alloca i32, align 4
  store i32 %0, ptr %4, align 4, !tbaa !36
  store i32 %1, ptr %5, align 4, !tbaa !36
  %6 = load i32, ptr %5, align 4, !tbaa !36
  %7 = icmp ne i32 %6, 0
  br i1 %7, label %8, label %15

8:                                                ; preds = %2
  %9 = load i32, ptr %4, align 4, !tbaa !36
  %10 = add nsw i32 %9, 32
  %11 = sext i32 %10 to i64
  %12 = getelementptr inbounds [64 x i8], ptr @rv60_qp_to_idx, i64 0, i64 %11
  %13 = load i8, ptr %12, align 1, !tbaa !48
  %14 = zext i8 %13 to i32
  store i32 %14, ptr %3, align 4
  br label %21

15:                                               ; preds = %2
  %16 = load i32, ptr %4, align 4, !tbaa !36
  %17 = sext i32 %16 to i64
  %18 = getelementptr inbounds [64 x i8], ptr @rv60_qp_to_idx, i64 0, i64 %17
  %19 = load i8, ptr %18, align 1, !tbaa !48
  %20 = zext i8 %19 to i32
  store i32 %20, ptr %3, align 4
  br label %21

21:                                               ; preds = %15, %8
  %22 = load i32, ptr %3, align 4
  ret i32 %22
}

; Function Attrs: nounwind uwtable
define internal void @decode_cu_8x8(ptr noundef %0, i32 noundef %1, i32 noundef %2, i32 noundef %3, ptr noundef %4, ptr noundef %5, ptr noundef %6, i32 noundef %7, i32 noundef %8) #1 {
  %10 = alloca ptr, align 8
  %11 = alloca i32, align 4
  %12 = alloca i32, align 4
  %13 = alloca i32, align 4
  %14 = alloca ptr, align 8
  %15 = alloca ptr, align 8
  %16 = alloca ptr, align 8
  %17 = alloca i32, align 4
  %18 = alloca i32, align 4
  %19 = alloca i32, align 4
  %20 = alloca ptr, align 8
  %21 = alloca i32, align 4
  %22 = alloca i32, align 4
  %23 = alloca i32, align 4
  %24 = alloca i32, align 4
  %25 = alloca i32, align 4
  %26 = alloca i32, align 4
  store ptr %0, ptr %10, align 8, !tbaa !92
  store i32 %1, ptr %11, align 4, !tbaa !36
  store i32 %2, ptr %12, align 4, !tbaa !36
  store i32 %3, ptr %13, align 4, !tbaa !36
  store ptr %4, ptr %14, align 8, !tbaa !204
  store ptr %5, ptr %15, align 8, !tbaa !204
  store ptr %6, ptr %16, align 8, !tbaa !204
  store i32 %7, ptr %17, align 4, !tbaa !36
  store i32 %8, ptr %18, align 4, !tbaa !36
  call void @llvm.lifetime.start.p0(i64 4, ptr %19) #11
  %27 = load i32, ptr %13, align 4, !tbaa !36
  %28 = load i32, ptr %11, align 4, !tbaa !36
  %29 = call i32 @get_c4x4_set(i32 noundef %27, i32 noundef %28)
  store i32 %29, ptr %19, align 4, !tbaa !36
  call void @llvm.lifetime.start.p0(i64 8, ptr %20) #11
  %30 = load i32, ptr %11, align 4, !tbaa !36
  %31 = icmp ne i32 %30, 0
  br i1 %31, label %32, label %36

32:                                               ; preds = %9
  %33 = load i32, ptr %19, align 4, !tbaa !36
  %34 = sext i32 %33 to i64
  %35 = getelementptr inbounds [5 x %struct.CoeffVLCs], ptr @intra_coeff_vlc, i64 0, i64 %34
  br label %40

36:                                               ; preds = %9
  %37 = load i32, ptr %19, align 4, !tbaa !36
  %38 = sext i32 %37 to i64
  %39 = getelementptr inbounds [7 x %struct.CoeffVLCs], ptr @inter_coeff_vlc, i64 0, i64 %38
  br label %40

40:                                               ; preds = %36, %32
  %41 = phi ptr [ %35, %32 ], [ %39, %36 ]
  store ptr %41, ptr %20, align 8, !tbaa !87
  call void @llvm.lifetime.start.p0(i64 4, ptr %21) #11
  %42 = load i32, ptr %12, align 4, !tbaa !36
  %43 = sext i32 %42 to i64
  %44 = getelementptr inbounds [32 x i16], ptr @rv60_quants_b, i64 0, i64 %43
  %45 = load i16, ptr %44, align 2, !tbaa !153
  %46 = zext i16 %45 to i32
  store i32 %46, ptr %21, align 4, !tbaa !36
  call void @llvm.lifetime.start.p0(i64 4, ptr %22) #11
  %47 = load i32, ptr %12, align 4, !tbaa !36
  %48 = sext i32 %47 to i64
  %49 = getelementptr inbounds [32 x i8], ptr @rv60_chroma_quant_dc, i64 0, i64 %48
  %50 = load i8, ptr %49, align 1, !tbaa !48
  %51 = zext i8 %50 to i64
  %52 = getelementptr inbounds nuw [32 x i16], ptr @rv60_quants_b, i64 0, i64 %51
  %53 = load i16, ptr %52, align 2, !tbaa !153
  %54 = zext i16 %53 to i32
  store i32 %54, ptr %22, align 4, !tbaa !36
  call void @llvm.lifetime.start.p0(i64 4, ptr %23) #11
  %55 = load i32, ptr %12, align 4, !tbaa !36
  %56 = sext i32 %55 to i64
  %57 = getelementptr inbounds [32 x i8], ptr @rv60_chroma_quant_ac, i64 0, i64 %56
  %58 = load i8, ptr %57, align 1, !tbaa !48
  %59 = zext i8 %58 to i64
  %60 = getelementptr inbounds nuw [32 x i16], ptr @rv60_quants_b, i64 0, i64 %59
  %61 = load i16, ptr %60, align 2, !tbaa !153
  %62 = zext i16 %61 to i32
  store i32 %62, ptr %23, align 4, !tbaa !36
  %63 = load ptr, ptr %14, align 8, !tbaa !204
  call void @llvm.memset.p0.i64(ptr align 2 %63, i8 0, i64 128, i1 false)
  call void @llvm.lifetime.start.p0(i64 4, ptr %24) #11
  store i32 0, ptr %24, align 4, !tbaa !36
  br label %64

64:                                               ; preds = %99, %40
  %65 = load i32, ptr %24, align 4, !tbaa !36
  %66 = icmp slt i32 %65, 4
  br i1 %66, label %68, label %67

67:                                               ; preds = %64
  call void @llvm.lifetime.end.p0(i64 4, ptr %24) #11
  br label %102

68:                                               ; preds = %64
  %69 = load i32, ptr %17, align 4, !tbaa !36
  %70 = load i32, ptr %24, align 4, !tbaa !36
  %71 = ashr i32 %69, %70
  %72 = and i32 %71, 1
  %73 = icmp ne i32 %72, 0
  br i1 %73, label %74, label %98

74:                                               ; preds = %68
  call void @llvm.lifetime.start.p0(i64 4, ptr %25) #11
  call void @llvm.lifetime.start.p0(i64 4, ptr %26) #11
  %75 = load i32, ptr %18, align 4, !tbaa !36
  %76 = icmp ne i32 %75, 0
  br i1 %76, label %77, label %80

77:                                               ; preds = %74
  %78 = load i32, ptr %24, align 4, !tbaa !36
  %79 = mul nsw i32 %78, 16
  store i32 %79, ptr %25, align 4, !tbaa !36
  store i32 4, ptr %26, align 4, !tbaa !36
  br label %89

80:                                               ; preds = %74
  %81 = load i32, ptr %24, align 4, !tbaa !36
  %82 = and i32 %81, 1
  %83 = mul nsw i32 %82, 4
  %84 = load i32, ptr %24, align 4, !tbaa !36
  %85 = and i32 %84, 2
  %86 = mul nsw i32 %85, 2
  %87 = mul nsw i32 %86, 8
  %88 = add nsw i32 %83, %87
  store i32 %88, ptr %25, align 4, !tbaa !36
  store i32 8, ptr %26, align 4, !tbaa !36
  br label %89

89:                                               ; preds = %80, %77
  %90 = load ptr, ptr %10, align 8, !tbaa !92
  %91 = load ptr, ptr %20, align 8, !tbaa !87
  %92 = load ptr, ptr %14, align 8, !tbaa !204
  %93 = load i32, ptr %25, align 4, !tbaa !36
  %94 = sext i32 %93 to i64
  %95 = getelementptr inbounds i16, ptr %92, i64 %94
  %96 = load i32, ptr %26, align 4, !tbaa !36
  %97 = load i32, ptr %21, align 4, !tbaa !36
  call void @decode_4x4_block(ptr noundef %90, ptr noundef %91, i32 noundef 1, ptr noundef %95, i32 noundef %96, i32 noundef %97)
  call void @llvm.lifetime.end.p0(i64 4, ptr %26) #11
  call void @llvm.lifetime.end.p0(i64 4, ptr %25) #11
  br label %98

98:                                               ; preds = %89, %68
  br label %99

99:                                               ; preds = %98
  %100 = load i32, ptr %24, align 4, !tbaa !36
  %101 = add nsw i32 %100, 1
  store i32 %101, ptr %24, align 4, !tbaa !36
  br label %64, !llvm.loop !208

102:                                              ; preds = %67
  %103 = load i32, ptr %17, align 4, !tbaa !36
  %104 = ashr i32 %103, 4
  %105 = and i32 %104, 1
  %106 = icmp ne i32 %105, 0
  br i1 %106, label %107, label %114

107:                                              ; preds = %102
  %108 = load ptr, ptr %15, align 8, !tbaa !204
  call void @llvm.memset.p0.i64(ptr align 2 %108, i8 0, i64 32, i1 false)
  %109 = load ptr, ptr %10, align 8, !tbaa !92
  %110 = load ptr, ptr %20, align 8, !tbaa !87
  %111 = load ptr, ptr %15, align 8, !tbaa !204
  %112 = load i32, ptr %22, align 4, !tbaa !36
  %113 = load i32, ptr %23, align 4, !tbaa !36
  call void @decode_4x4_block_dc(ptr noundef %109, ptr noundef %110, i32 noundef 0, ptr noundef %111, i32 noundef 4, i32 noundef %112, i32 noundef %113)
  br label %114

114:                                              ; preds = %107, %102
  %115 = load i32, ptr %17, align 4, !tbaa !36
  %116 = ashr i32 %115, 5
  %117 = and i32 %116, 1
  %118 = icmp ne i32 %117, 0
  br i1 %118, label %119, label %126

119:                                              ; preds = %114
  %120 = load ptr, ptr %16, align 8, !tbaa !204
  call void @llvm.memset.p0.i64(ptr align 2 %120, i8 0, i64 32, i1 false)
  %121 = load ptr, ptr %10, align 8, !tbaa !92
  %122 = load ptr, ptr %20, align 8, !tbaa !87
  %123 = load ptr, ptr %16, align 8, !tbaa !204
  %124 = load i32, ptr %22, align 4, !tbaa !36
  %125 = load i32, ptr %23, align 4, !tbaa !36
  call void @decode_4x4_block_dc(ptr noundef %121, ptr noundef %122, i32 noundef 0, ptr noundef %123, i32 noundef 4, i32 noundef %124, i32 noundef %125)
  br label %126

126:                                              ; preds = %119, %114
  call void @llvm.lifetime.end.p0(i64 4, ptr %23) #11
  call void @llvm.lifetime.end.p0(i64 4, ptr %22) #11
  call void @llvm.lifetime.end.p0(i64 4, ptr %21) #11
  call void @llvm.lifetime.end.p0(i64 8, ptr %20) #11
  call void @llvm.lifetime.end.p0(i64 4, ptr %19) #11
  ret void
}