; Function Attrs: nofree norecurse nosync nounwind memory(readwrite, inaccessiblemem: none) uwtable
define internal fastcc void @decode_cu_8x8(ptr noundef nonnull captures(none) %0, i32 noundef range(i32 0, 2) %1, i32 noundef range(i32 0, 32) %2, i32 noundef range(i32 0, -2147483648) %3, ptr noundef nonnull writeonly captures(none) initializes((0, 128)) %4, ptr noundef nonnull writeonly captures(none) %5, ptr noundef nonnull writeonly captures(none) %6, i32 noundef %7, i32 noundef range(i32 0, 2) %8) unnamed_addr #6 {
  %.not.i = icmp eq i32 %1, 0
  %10 = add nuw nsw i32 %3, 32
  %.pn.in.i = select i1 %.not.i, i32 %3, i32 %10
  %.pn.i = zext nneg i32 %.pn.in.i to i64
  %.0.in.in.i = getelementptr inbounds nuw [64 x i8], ptr @rv60_qp_to_idx, i64 0, i64 %.pn.i
  %.0.in.i = load i8, ptr %.0.in.in.i, align 1, !tbaa !42
  %11 = zext i8 %.0.in.i to i64
  %12 = getelementptr inbounds nuw [5 x %struct.CoeffVLCs], ptr @intra_coeff_vlc, i64 0, i64 %11
  %13 = getelementptr inbounds nuw [7 x %struct.CoeffVLCs], ptr @inter_coeff_vlc, i64 0, i64 %11
  %14 = select i1 %.not.i, ptr %13, ptr %12
  %15 = zext nneg i32 %2 to i64
  %16 = getelementptr inbounds nuw [32 x i16], ptr @rv60_quants_b, i64 0, i64 %15
  %17 = load i16, ptr %16, align 2, !tbaa !151
  %18 = zext i16 %17 to i32
  %19 = getelementptr inbounds nuw [32 x i8], ptr @rv60_chroma_quant_dc, i64 0, i64 %15
  %20 = load i8, ptr %19, align 1, !tbaa !42
  %21 = zext i8 %20 to i64
  %22 = getelementptr inbounds nuw [32 x i16], ptr @rv60_quants_b, i64 0, i64 %21
  %23 = load i16, ptr %22, align 2, !tbaa !151
  %24 = zext i16 %23 to i32
  %25 = getelementptr inbounds nuw [32 x i8], ptr @rv60_chroma_quant_ac, i64 0, i64 %15
  %26 = load i8, ptr %25, align 1, !tbaa !42
  %27 = zext i8 %26 to i64
  %28 = getelementptr inbounds nuw [32 x i16], ptr @rv60_quants_b, i64 0, i64 %27
  %29 = load i16, ptr %28, align 2, !tbaa !151
  %30 = zext i16 %29 to i32
  tail call void @llvm.memset.p0.i64(ptr noundef nonnull align 2 dereferenceable(128) %4, i8 0, i64 128, i1 false)
  %.not41 = icmp eq i32 %8, 0
  br i1 %.not41, label %.split.us, label %.split

.split.us:                                        ; preds = %9, %41
  %.03742.us = phi i32 [ %42, %41 ], [ 0, %9 ]
  %31 = shl nuw nsw i32 1, %.03742.us
  %32 = and i32 %31, %7
  %.not40.us = icmp eq i32 %32, 0
  br i1 %.not40.us, label %41, label %33

33:                                               ; preds = %.split.us
  %34 = shl nuw nsw i32 %.03742.us, 2
  %35 = and i32 %34, 4
  %36 = shl nuw nsw i32 %.03742.us, 4
  %37 = and i32 %36, 32
  %38 = or disjoint i32 %35, %37
  %39 = zext nneg i32 %38 to i64
  %40 = getelementptr inbounds nuw i16, ptr %4, i64 %39
  tail call fastcc void @decode_4x4_block(ptr noundef %0, ptr noundef nonnull %14, i32 noundef 1, ptr noundef %40, i32 noundef 8, i32 noundef %18)
  br label %41

41:                                               ; preds = %33, %.split.us
  %42 = add nuw nsw i32 %.03742.us, 1
  %exitcond48.not = icmp eq i32 %42, 4
  br i1 %exitcond48.not, label %.split45.us, label %.split.us, !llvm.loop !225

.split45.us:                                      ; preds = %49, %41
  %43 = and i32 %7, 16
  %.not38 = icmp eq i32 %43, 0
  br i1 %.not38, label %51, label %50

.split:                                           ; preds = %9, %49
  %indvars.iv = phi i64 [ %indvars.iv.next, %49 ], [ 0, %9 ]
  %44 = trunc nuw nsw i64 %indvars.iv to i32
  %45 = shl nuw nsw i32 1, %44
  %46 = and i32 %45, %7
  %.not40 = icmp eq i32 %46, 0
  br i1 %.not40, label %49, label %47

47:                                               ; preds = %.split
  %.idx = shl nuw nsw i64 %indvars.iv, 5
  %48 = getelementptr inbounds nuw i8, ptr %4, i64 %.idx
  tail call fastcc void @decode_4x4_block(ptr noundef %0, ptr noundef nonnull %14, i32 noundef 1, ptr noundef %48, i32 noundef 4, i32 noundef %18)
  br label %49

49:                                               ; preds = %.split, %47
  %indvars.iv.next = add nuw nsw i64 %indvars.iv, 1
  %exitcond.not = icmp eq i64 %indvars.iv.next, 4
  br i1 %exitcond.not, label %.split45.us, label %.split, !llvm.loop !225

50:                                               ; preds = %.split45.us
  tail call void @llvm.memset.p0.i64(ptr noundef nonnull align 2 dereferenceable(32) %5, i8 0, i64 32, i1 false)
  tail call fastcc void @decode_4x4_block_dc(ptr noundef %0, ptr noundef nonnull %14, ptr noundef %5, i32 noundef 4, i32 noundef %24, i32 noundef %30)
  br label %51

51:                                               ; preds = %50, %.split45.us
  %52 = and i32 %7, 32
  %.not39 = icmp eq i32 %52, 0
  br i1 %.not39, label %54, label %53

53:                                               ; preds = %51
  tail call void @llvm.memset.p0.i64(ptr noundef nonnull align 2 dereferenceable(32) %6, i8 0, i64 32, i1 false)
  tail call fastcc void @decode_4x4_block_dc(ptr noundef %0, ptr noundef nonnull %14, ptr noundef %6, i32 noundef 4, i32 noundef %24, i32 noundef %30)
  br label %54

54:                                               ; preds = %53, %51
  ret void
}